target datalayout = "e-m:e-p270:32:32-p271:32:32-p272:64:64-i64:64-i128:128-f80:128-n8:16:32:64-S128"
target triple = "x86_64-unknown-linux-gnu"

@_ZN6icu_75L14TZDBNAMES_KEYSE = internal global [2 x ptr] [ptr @.str.5, ptr @.str.6], align 16
@.str.1 = private unnamed_addr constant [13 x i8] c"parseRegions\00", align 1
@_ZN6icu_759TZDBNamesC1EPPKDsPPci = unnamed_addr alias void (ptr, ptr, ptr, i32), ptr @_ZN6icu_759TZDBNamesC2EPPKDsPPci

; Function Attrs: mustprogress nounwind uwtable
define internal noundef signext i8 @_ZL9U_SUCCESS10UErrorCode(i32 noundef %code) #0 {
entry:
  %code.addr = alloca i32, align 4
  store i32 %code, ptr %code.addr, align 4
  %0 = load i32, ptr %code.addr, align 4
  %cmp = icmp sle i32 %0, 0
  %conv = zext i1 %cmp to i8
  ret i8 %conv
}

; Function Attrs: mustprogress nounwind uwtable
define internal noundef signext i8 @_ZL9U_FAILURE10UErrorCode(i32 noundef %code) #0 {
entry:
  %code.addr = alloca i32, align 4
  store i32 %code, ptr %code.addr, align 4
  %0 = load i32, ptr %code.addr, align 4
  %cmp = icmp sgt i32 %0, 0
  %conv = zext i1 %cmp to i8
  ret i8 %conv
}

; Function Attrs: mustprogress uwtable
define noundef ptr @_ZN6icu_759TZDBNames14createInstanceEP15UResourceBundlePKc(ptr noundef %rb, ptr noundef %key) #1 align 2 personality ptr @__gxx_personality_v0 {
entry:
  %retval = alloca ptr, align 8
  %rb.addr = alloca ptr, align 8
  %key.addr = alloca ptr, align 8
  %status = alloca i32, align 4
  %names = alloca ptr, align 8
  %regions = alloca ptr, align 8
  %numRegions = alloca i32, align 4
  %len = alloca i32, align 4
  %rbTable = alloca ptr, align 8
  %isEmpty = alloca i8, align 1
  %i = alloca i32, align 4
  %value = alloca ptr, align 8
  %regionsRes = alloca ptr, align 8
  %regionError = alloca i8, align 1
  %pRegion = alloca ptr, align 8
  %i40 = alloca i32, align 4
  %i47 = alloca i32, align 4
  %uregion = alloca ptr, align 8
  %p = alloca ptr, align 8
  %i78 = alloca i32, align 4
  %saved-rvalue = alloca ptr, align 8
  %cleanup.cond = alloca i1, align 1
  %exn.slot = alloca ptr, align 8
  %ehselector.slot = alloca i32, align 4
  store ptr %rb, ptr %rb.addr, align 8
  store ptr %key, ptr %key.addr, align 8
  %0 = load ptr, ptr %rb.addr, align 8
  %cmp = icmp eq ptr %0, null
  br i1 %cmp, label %if.then, label %lor.lhs.false

lor.lhs.false:                                    ; preds = %entry
  %1 = load ptr, ptr %key.addr, align 8
  %cmp1 = icmp eq ptr %1, null
  br i1 %cmp1, label %if.then, label %lor.lhs.false2

lor.lhs.false2:                                   ; preds = %lor.lhs.false
  %2 = load ptr, ptr %key.addr, align 8
  %3 = load i8, ptr %2, align 1
  %conv = sext i8 %3 to i32
  %cmp3 = icmp eq i32 %conv, 0
  br i1 %cmp3, label %if.then, label %if.end

if.then:                                          ; preds = %lor.lhs.false2, %lor.lhs.false, %entry
  store ptr null, ptr %retval, align 8
  br label %return

if.end:                                           ; preds = %lor.lhs.false2
  store i32 0, ptr %status, align 4
  store ptr null, ptr %names, align 8
  store ptr null, ptr %regions, align 8
  store i32 0, ptr %numRegions, align 4
  store i32 0, ptr %len, align 4
  store ptr null, ptr %rbTable, align 8
  %4 = load ptr, ptr %rb.addr, align 8
  %5 = load ptr, ptr %key.addr, align 8
  %6 = load ptr, ptr %rbTable, align 8
  %call = call ptr @ures_getByKey_75(ptr noundef %4, ptr noundef %5, ptr noundef %6, ptr noundef %status)
  store ptr %call, ptr %rbTable, align 8
  %7 = load i32, ptr %status, align 4
  %call4 = call noundef signext i8 @_ZL9U_FAILURE10UErrorCode(i32 noundef %7)
  %tobool = icmp ne i8 %call4, 0
  br i1 %tobool, label %if.then5, label %if.end6

if.then5:                                         ; preds = %if.end
  store ptr null, ptr %retval, align 8
  br label %return

if.end6:                                          ; preds = %if.end
  %call7 = call noalias ptr @uprv_malloc_75(i64 noundef 16) #11
  store ptr %call7, ptr %names, align 8
  store i8 1, ptr %isEmpty, align 1
  %8 = load ptr, ptr %names, align 8
  %cmp8 = icmp ne ptr %8, null
  br i1 %cmp8, label %if.then9, label %if.end22

if.then9:                                         ; preds = %if.end6
  store i32 0, ptr %i, align 4
  br label %for.cond

for.cond:                                         ; preds = %for.inc, %if.then9
  %9 = load i32, ptr %i, align 4
  %cmp10 = icmp slt i32 %9, 2
  br i1 %cmp10, label %for.body, label %for.end

for.body:                                         ; preds = %for.cond
  store i32 0, ptr %status, align 4
  %10 = load ptr, ptr %rbTable, align 8
  %11 = load i32, ptr %i, align 4
  %idxprom = sext i32 %11 to i64
  %arrayidx = getelementptr inbounds [2 x ptr], ptr @_ZN6icu_75L14TZDBNAMES_KEYSE, i64 0, i64 %idxprom
  %12 = load ptr, ptr %arrayidx, align 8
  %call11 = call ptr @ures_getStringByKey_75(ptr noundef %10, ptr noundef %12, ptr noundef %len, ptr noundef %status)
  store ptr %call11, ptr %value, align 8
  %13 = load i32, ptr %status, align 4
  %call12 = call noundef signext i8 @_ZL9U_FAILURE10UErrorCode(i32 noundef %13)
  %tobool13 = icmp ne i8 %call12, 0
  br i1 %tobool13, label %if.then16, label %lor.lhs.false14

lor.lhs.false14:                                  ; preds = %for.body
  %14 = load i32, ptr %len, align 4
  %cmp15 = icmp eq i32 %14, 0
  br i1 %cmp15, label %if.then16, label %if.else

if.then16:                                        ; preds = %lor.lhs.false14, %for.body
  %15 = load ptr, ptr %names, align 8
  %16 = load i32, ptr %i, align 4
  %idxprom17 = sext i32 %16 to i64
  %arrayidx18 = getelementptr inbounds ptr, ptr %15, i64 %idxprom17
  store ptr null, ptr %arrayidx18, align 8
  br label %if.end21

if.else:                                          ; preds = %lor.lhs.false14
  %17 = load ptr, ptr %value, align 8
  %18 = load ptr, ptr %names, align 8
  %19 = load i32, ptr %i, align 4
  %idxprom19 = sext i32 %19 to i64
  %arrayidx20 = getelementptr inbounds ptr, ptr %18, i64 %idxprom19
  store ptr %17, ptr %arrayidx20, align 8
  store i8 0, ptr %isEmpty, align 1
  br label %if.end21

if.end21:                                         ; preds = %if.else, %if.then16
  br label %for.inc

for.inc:                                          ; preds = %if.end21
  %20 = load i32, ptr %i, align 4
  %inc = add nsw i32 %20, 1
  store i32 %inc, ptr %i, align 4
  br label %for.cond, !llvm.loop !26

for.end:                                          ; preds = %for.cond
  br label %if.end22

if.end22:                                         ; preds = %for.end, %if.end6
  %21 = load i8, ptr %isEmpty, align 1
  %tobool23 = icmp ne i8 %21, 0
  br i1 %tobool23, label %if.then24, label %if.end28

if.then24:                                        ; preds = %if.end22
  %22 = load ptr, ptr %names, align 8
  %cmp25 = icmp ne ptr %22, null
  br i1 %cmp25, label %if.then26, label %if.end27

if.then26:                                        ; preds = %if.then24
  %23 = load ptr, ptr %names, align 8
  call void @uprv_free_75(ptr noundef %23)
  br label %if.end27

if.end27:                                         ; preds = %if.then26, %if.then24
  store ptr null, ptr %retval, align 8
  br label %return

if.end28:                                         ; preds = %if.end22
  %24 = load ptr, ptr %rbTable, align 8
  %call29 = call ptr @ures_getByKey_75(ptr noundef %24, ptr noundef @.str.1, ptr noundef null, ptr noundef %status)
  store ptr %call29, ptr %regionsRes, align 8
  store i8 0, ptr %regionError, align 1
  %25 = load i32, ptr %status, align 4
  %call30 = call noundef signext i8 @_ZL9U_SUCCESS10UErrorCode(i32 noundef %25)
  %tobool31 = icmp ne i8 %call30, 0
  br i1 %tobool31, label %if.then32, label %if.end70

if.then32:                                        ; preds = %if.end28
  %26 = load ptr, ptr %regionsRes, align 8
  %call33 = call i32 @ures_getSize_75(ptr noundef %26)
  store i32 %call33, ptr %numRegions, align 4
  %27 = load i32, ptr %numRegions, align 4
  %cmp34 = icmp sgt i32 %27, 0
  br i1 %cmp34, label %if.then35, label %if.end69

if.then35:                                        ; preds = %if.then32
  %28 = load i32, ptr %numRegions, align 4
  %conv36 = sext i32 %28 to i64
  %mul = mul i64 8, %conv36
  %call37 = call noalias ptr @uprv_malloc_75(i64 noundef %mul) #11
  store ptr %call37, ptr %regions, align 8
  %29 = load ptr, ptr %regions, align 8
  %cmp38 = icmp ne ptr %29, null
  br i1 %cmp38, label %if.then39, label %if.end68

if.then39:                                        ; preds = %if.then35
  %30 = load ptr, ptr %regions, align 8
  store ptr %30, ptr %pRegion, align 8
  store i32 0, ptr %i40, align 4
  br label %for.cond41

for.cond41:                                       ; preds = %for.inc44, %if.then39
  %31 = load i32, ptr %i40, align 4
  %32 = load i32, ptr %numRegions, align 4
  %cmp42 = icmp slt i32 %31, %32
  br i1 %cmp42, label %for.body43, label %for.end46

for.body43:                                       ; preds = %for.cond41
  %33 = load ptr, ptr %pRegion, align 8
  store ptr null, ptr %33, align 8
  br label %for.inc44

for.inc44:                                        ; preds = %for.body43
  %34 = load i32, ptr %i40, align 4
  %inc45 = add nsw i32 %34, 1
  store i32 %inc45, ptr %i40, align 4
  %35 = load ptr, ptr %pRegion, align 8
  %incdec.ptr = getelementptr inbounds ptr, ptr %35, i32 1
  store ptr %incdec.ptr, ptr %pRegion, align 8
  br label %for.cond41, !llvm.loop !27

for.end46:                                        ; preds = %for.cond41
  %36 = load ptr, ptr %regions, align 8
  store ptr %36, ptr %pRegion, align 8
  store i32 0, ptr %i47, align 4
  br label %for.cond48

for.cond48:                                       ; preds = %for.inc64, %for.end46
  %37 = load i32, ptr %i47, align 4
  %38 = load i32, ptr %numRegions, align 4
  %cmp49 = icmp slt i32 %37, %38
  br i1 %cmp49, label %for.body50, label %for.end67

for.body50:                                       ; preds = %for.cond48
  store i32 0, ptr %status, align 4
  %39 = load ptr, ptr %regionsRes, align 8
  %40 = load i32, ptr %i47, align 4
  %call51 = call ptr @ures_getStringByIndex_75(ptr noundef %39, i32 noundef %40, ptr noundef %len, ptr noundef %status)
  store ptr %call51, ptr %uregion, align 8
  %41 = load i32, ptr %status, align 4
  %call52 = call noundef signext i8 @_ZL9U_FAILURE10UErrorCode(i32 noundef %41)
  %tobool53 = icmp ne i8 %call52, 0
  br i1 %tobool53, label %if.then54, label %if.end55

if.then54:                                        ; preds = %for.body50
  store i8 1, ptr %regionError, align 1
  br label %for.end67

if.end55:                                         ; preds = %for.body50
  %42 = load i32, ptr %len, align 4
  %add = add nsw i32 %42, 1
  %conv56 = sext i32 %add to i64
  %mul57 = mul i64 1, %conv56
  %call58 = call noalias ptr @uprv_malloc_75(i64 noundef %mul57) #11
  %43 = load ptr, ptr %pRegion, align 8
  store ptr %call58, ptr %43, align 8
  %44 = load ptr, ptr %pRegion, align 8
  %45 = load ptr, ptr %44, align 8
  %cmp59 = icmp eq ptr %45, null
  br i1 %cmp59, label %if.then60, label %if.end61

if.then60:                                        ; preds = %if.end55
  store i8 1, ptr %regionError, align 1
  br label %for.end67

if.end61:                                         ; preds = %if.end55
  %46 = load ptr, ptr %uregion, align 8
  %47 = load ptr, ptr %pRegion, align 8
  %48 = load ptr, ptr %47, align 8
  %49 = load i32, ptr %len, align 4
  call void @u_UCharsToChars_75(ptr noundef %46, ptr noundef %48, i32 noundef %49)
  %50 = load ptr, ptr %pRegion, align 8
  %51 = load ptr, ptr %50, align 8
  %52 = load i32, ptr %len, align 4
  %idxprom62 = sext i32 %52 to i64
  %arrayidx63 = getelementptr inbounds i8, ptr %51, i64 %idxprom62
  store i8 0, ptr %arrayidx63, align 1
  br label %for.inc64

for.inc64:                                        ; preds = %if.end61
  %53 = load i32, ptr %i47, align 4
  %inc65 = add nsw i32 %53, 1
  store i32 %inc65, ptr %i47, align 4
  %54 = load ptr, ptr %pRegion, align 8
  %incdec.ptr66 = getelementptr inbounds ptr, ptr %54, i32 1
  store ptr %incdec.ptr66, ptr %pRegion, align 8
  br label %for.cond48, !llvm.loop !28

for.end67:                                        ; preds = %if.then60, %if.then54, %for.cond48
  br label %if.end68

if.end68:                                         ; preds = %for.end67, %if.then35
  br label %if.end69

if.end69:                                         ; preds = %if.end68, %if.then32
  br label %if.end70

if.end70:                                         ; preds = %if.end69, %if.end28
  %55 = load ptr, ptr %regionsRes, align 8
  call void @ures_close_75(ptr noundef %55)
  %56 = load ptr, ptr %rbTable, align 8
  call void @ures_close_75(ptr noundef %56)
  %57 = load i8, ptr %regionError, align 1
  %tobool71 = icmp ne i8 %57, 0
  br i1 %tobool71, label %if.then72, label %if.end87

if.then72:                                        ; preds = %if.end70
  %58 = load ptr, ptr %names, align 8
  %cmp73 = icmp ne ptr %58, null
  br i1 %cmp73, label %if.then74, label %if.end75

if.then74:                                        ; preds = %if.then72
  %59 = load ptr, ptr %names, align 8
  call void @uprv_free_75(ptr noundef %59)
  br label %if.end75

if.end75:                                         ; preds = %if.then74, %if.then72
  %60 = load ptr, ptr %regions, align 8
  %cmp76 = icmp ne ptr %60, null
  br i1 %cmp76, label %if.then77, label %if.end86

if.then77:                                        ; preds = %if.end75
  %61 = load ptr, ptr %regions, align 8
  store ptr %61, ptr %p, align 8
  store i32 0, ptr %i78, align 4
  br label %for.cond79

for.cond79:                                       ; preds = %for.inc82, %if.then77
  %62 = load i32, ptr %i78, align 4
  %63 = load i32, ptr %numRegions, align 4
  %cmp80 = icmp slt i32 %62, %63
  br i1 %cmp80, label %for.body81, label %for.end85

for.body81:                                       ; preds = %for.cond79
  %64 = load ptr, ptr %p, align 8
  %65 = load ptr, ptr %64, align 8
  call void @uprv_free_75(ptr noundef %65)
  br label %for.inc82

for.inc82:                                        ; preds = %for.body81
  %66 = load ptr, ptr %p, align 8
  %incdec.ptr83 = getelementptr inbounds ptr, ptr %66, i32 1
  store ptr %incdec.ptr83, ptr %p, align 8
  %67 = load i32, ptr %i78, align 4
  %inc84 = add nsw i32 %67, 1
  store i32 %inc84, ptr %i78, align 4
  br label %for.cond79, !llvm.loop !29

for.end85:                                        ; preds = %for.cond79
  %68 = load ptr, ptr %regions, align 8
  call void @uprv_free_75(ptr noundef %68)
  br label %if.end86

if.end86:                                         ; preds = %for.end85, %if.end75
  store ptr null, ptr %retval, align 8
  br label %return

if.end87:                                         ; preds = %if.end70
  %call88 = call noundef ptr @_ZN6icu_757UMemorynwEm(i64 noundef 32) #10
  %new.isnull = icmp eq ptr %call88, null
  store i1 false, ptr %cleanup.cond, align 1
  br i1 %new.isnull, label %new.cont, label %new.notnull

new.notnull:                                      ; preds = %if.end87
  store ptr %call88, ptr %saved-rvalue, align 8
  store i1 true, ptr %cleanup.cond, align 1
  %69 = load ptr, ptr %names, align 8
  %70 = load ptr, ptr %regions, align 8
  %71 = load i32, ptr %numRegions, align 4
  invoke void @_ZN6icu_759TZDBNamesC1EPPKDsPPci(ptr noundef nonnull align 8 dereferenceable(28) %call88, ptr noundef %69, ptr noundef %70, i32 noundef %71)
          to label %invoke.cont unwind label %lpad

invoke.cont:                                      ; preds = %new.notnull
  br label %new.cont

new.cont:                                         ; preds = %invoke.cont, %if.end87
  %72 = phi ptr [ %call88, %invoke.cont ], [ null, %if.end87 ]
  store ptr %72, ptr %retval, align 8
  br label %return

lpad:                                             ; preds = %new.notnull
  %73 = landingpad { ptr, i32 }
          cleanup
  %74 = extractvalue { ptr, i32 } %73, 0
  store ptr %74, ptr %exn.slot, align 8
  %75 = extractvalue { ptr, i32 } %73, 1
  store i32 %75, ptr %ehselector.slot, align 4
  %cleanup.is_active = load i1, ptr %cleanup.cond, align 1
  br i1 %cleanup.is_active, label %cleanup.action, label %cleanup.done

cleanup.action:                                   ; preds = %lpad
  %76 = load ptr, ptr %saved-rvalue, align 8
  call void @_ZN6icu_757UMemorydlEPv(ptr noundef %76) #10
  br label %cleanup.done

cleanup.done:                                     ; preds = %cleanup.action, %lpad
  br label %eh.resume

return:                                           ; preds = %new.cont, %if.end86, %if.end27, %if.then5, %if.then
  %77 = load ptr, ptr %retval, align 8
  ret ptr %77

eh.resume:                                        ; preds = %cleanup.done
  %exn = load ptr, ptr %exn.slot, align 8
  %sel = load i32, ptr %ehselector.slot, align 4
  %lpad.val = insertvalue { ptr, i32 } poison, ptr %exn, 0
  %lpad.val89 = insertvalue { ptr, i32 } %lpad.val, i32 %sel, 1
  resume { ptr, i32 } %lpad.val89
}