; Function Attrs: mustprogress uwtable
define noundef ptr @_ZN6icu_759TZDBNames14createInstanceEP15UResourceBundlePKc(ptr noundef %rb, ptr noundef %key) local_unnamed_addr #1 align 2 personality ptr @__gxx_personality_v0 {
entry:
  %status = alloca i32, align 4
  %len = alloca i32, align 4
  %cmp = icmp eq ptr %rb, null
  %cmp1 = icmp eq ptr %key, null
  %or.cond = or i1 %cmp, %cmp1
  br i1 %or.cond, label %return, label %lor.lhs.false2

lor.lhs.false2:                                   ; preds = %entry
  %0 = load i8, ptr %key, align 1
  %cmp3 = icmp eq i8 %0, 0
  br i1 %cmp3, label %return, label %if.end

if.end:                                           ; preds = %lor.lhs.false2
  store i32 0, ptr %status, align 4
  store i32 0, ptr %len, align 4
  %call = call ptr @ures_getByKey_75(ptr noundef nonnull %rb, ptr noundef nonnull %key, ptr noundef null, ptr noundef nonnull %status)
  %1 = load i32, ptr %status, align 4
  %cmp.i = icmp slt i32 %1, 1
  br i1 %cmp.i, label %if.end6, label %return

if.end6:                                          ; preds = %if.end
  %call7 = call noalias dereferenceable_or_null(16) ptr @uprv_malloc_75(i64 noundef 16) #21
  %cmp8.not = icmp eq ptr %call7, null
  br i1 %cmp8.not, label %return, label %for.body.outer

for.body.outer:                                   ; preds = %if.end6, %for.inc.thread
  %indvars.iv.ph = phi i64 [ 1, %for.inc.thread ], [ 0, %if.end6 ]
  %tobool23.not = phi i1 [ true, %for.inc.thread ], [ false, %if.end6 ]
  br label %for.body

for.body:                                         ; preds = %for.body.outer, %for.inc
  %indvars.iv = phi i64 [ 1, %for.inc ], [ %indvars.iv.ph, %for.body.outer ]
  store i32 0, ptr %status, align 4
  %arrayidx = getelementptr inbounds [2 x ptr], ptr @_ZN6icu_75L14TZDBNAMES_KEYSE, i64 0, i64 %indvars.iv
  %2 = load ptr, ptr %arrayidx, align 8
  %call11 = call ptr @ures_getStringByKey_75(ptr noundef %call, ptr noundef %2, ptr noundef nonnull %len, ptr noundef nonnull %status)
  %3 = load i32, ptr %status, align 4
  %cmp.i43 = icmp sgt i32 %3, 0
  %4 = load i32, ptr %len, align 4
  %cmp15 = icmp eq i32 %4, 0
  %or.cond1 = select i1 %cmp.i43, i1 true, i1 %cmp15
  %5 = getelementptr inbounds ptr, ptr %call7, i64 %indvars.iv
  %cmp10 = icmp eq i64 %indvars.iv, 0
  br i1 %or.cond1, label %for.inc, label %for.inc.thread

for.inc:                                          ; preds = %for.body
  store ptr null, ptr %5, align 8
  br i1 %cmp10, label %for.body, label %if.end22, !llvm.loop !32

for.inc.thread:                                   ; preds = %for.body
  store ptr %call11, ptr %5, align 8
  br i1 %cmp10, label %for.body.outer, label %if.end28, !llvm.loop !32

if.end22:                                         ; preds = %for.inc
  br i1 %tobool23.not, label %if.end28, label %return.sink.split

if.end28:                                         ; preds = %for.inc.thread, %if.end22
  %call29 = call ptr @ures_getByKey_75(ptr noundef %call, ptr noundef nonnull @.str.1, ptr noundef null, ptr noundef nonnull %status)
  %6 = load i32, ptr %status, align 4
  %cmp.i45 = icmp sgt i32 %6, 0
  br i1 %cmp.i45, label %if.end70, label %if.then32

if.then32:                                        ; preds = %if.end28
  %call33 = call i32 @ures_getSize_75(ptr noundef %call29)
  %cmp34 = icmp sgt i32 %call33, 0
  br i1 %cmp34, label %if.then35, label %if.end70

if.then35:                                        ; preds = %if.then32
  %conv36 = zext nneg i32 %call33 to i64
  %mul = shl nuw nsw i64 %conv36, 3
  %call37 = call noalias ptr @uprv_malloc_75(i64 noundef %mul) #21
  %cmp38.not = icmp eq ptr %call37, null
  br i1 %cmp38.not, label %if.end70, label %for.body50.preheader

for.body50.preheader:                             ; preds = %if.then35
  call void @llvm.memset.p0.i64(ptr nonnull align 8 %call37, i8 0, i64 %mul, i1 false)
  br label %for.body50

for.body50:                                       ; preds = %for.body50.preheader, %if.end61
  %i47.058 = phi i32 [ %inc65, %if.end61 ], [ 0, %for.body50.preheader ]
  %pRegion.157 = phi ptr [ %incdec.ptr66, %if.end61 ], [ %call37, %for.body50.preheader ]
  store i32 0, ptr %status, align 4
  %call51 = call ptr @ures_getStringByIndex_75(ptr noundef %call29, i32 noundef %i47.058, ptr noundef nonnull %len, ptr noundef nonnull %status)
  %7 = load i32, ptr %status, align 4
  %cmp.i47 = icmp slt i32 %7, 1
  br i1 %cmp.i47, label %if.end55, label %if.end70

if.end55:                                         ; preds = %for.body50
  %8 = load i32, ptr %len, align 4
  %add = add nsw i32 %8, 1
  %conv56 = sext i32 %add to i64
  %call58 = call noalias ptr @uprv_malloc_75(i64 noundef %conv56) #21
  store ptr %call58, ptr %pRegion.157, align 8
  %cmp59 = icmp eq ptr %call58, null
  br i1 %cmp59, label %if.end70, label %if.end61

if.end61:                                         ; preds = %if.end55
  %9 = load i32, ptr %len, align 4
  call void @u_UCharsToChars_75(ptr noundef %call51, ptr noundef nonnull %call58, i32 noundef %9)
  %10 = load ptr, ptr %pRegion.157, align 8
  %11 = load i32, ptr %len, align 4
  %idxprom62 = sext i32 %11 to i64
  %arrayidx63 = getelementptr inbounds i8, ptr %10, i64 %idxprom62
  store i8 0, ptr %arrayidx63, align 1
  %inc65 = add nuw nsw i32 %i47.058, 1
  %incdec.ptr66 = getelementptr inbounds i8, ptr %pRegion.157, i64 8
  %exitcond.not = icmp eq i32 %inc65, %call33
  br i1 %exitcond.not, label %if.end70, label %for.body50, !llvm.loop !33

if.end70:                                         ; preds = %if.end61, %for.body50, %if.end55, %if.then32, %if.then35, %if.end28
  %tobool71.not = phi i1 [ true, %if.then35 ], [ true, %if.then32 ], [ true, %if.end28 ], [ true, %if.end61 ], [ false, %for.body50 ], [ false, %if.end55 ]
  %numRegions.0 = phi i32 [ %call33, %if.then35 ], [ %call33, %if.then32 ], [ 0, %if.end28 ], [ %call33, %if.end55 ], [ %call33, %for.body50 ], [ %call33, %if.end61 ]
  %regions.0 = phi ptr [ null, %if.then35 ], [ null, %if.then32 ], [ null, %if.end28 ], [ %call37, %if.end55 ], [ %call37, %for.body50 ], [ %call37, %if.end61 ]
  call void @ures_close_75(ptr noundef %call29)
  call void @ures_close_75(ptr noundef %call)
  br i1 %tobool71.not, label %if.end87, label %if.then74

if.then74:                                        ; preds = %if.end70
  call void @uprv_free_75(ptr noundef nonnull %call7)
  %cmp76.not = icmp eq ptr %regions.0, null
  br i1 %cmp76.not, label %return, label %for.cond79.preheader

for.cond79.preheader:                             ; preds = %if.then74
  %cmp8061 = icmp sgt i32 %numRegions.0, 0
  br i1 %cmp8061, label %for.body81, label %return.sink.split

for.body81:                                       ; preds = %for.cond79.preheader, %for.body81
  %i78.063 = phi i32 [ %inc84, %for.body81 ], [ 0, %for.cond79.preheader ]
  %p.062 = phi ptr [ %incdec.ptr83, %for.body81 ], [ %regions.0, %for.cond79.preheader ]
  %12 = load ptr, ptr %p.062, align 8
  call void @uprv_free_75(ptr noundef %12)
  %incdec.ptr83 = getelementptr inbounds i8, ptr %p.062, i64 8
  %inc84 = add nuw nsw i32 %i78.063, 1
  %exitcond64.not = icmp eq i32 %inc84, %numRegions.0
  br i1 %exitcond64.not, label %return.sink.split, label %for.body81, !llvm.loop !34

if.end87:                                         ; preds = %if.end70
  %call88 = call noundef ptr @_ZN6icu_757UMemorynwEm(i64 noundef 32) #20
  %new.isnull = icmp eq ptr %call88, null
  br i1 %new.isnull, label %return, label %new.notnull

new.notnull:                                      ; preds = %if.end87
  invoke void @_ZN6icu_759TZDBNamesC1EPPKDsPPci(ptr noundef nonnull align 8 dereferenceable(28) %call88, ptr noundef nonnull %call7, ptr noundef %regions.0, i32 noundef %numRegions.0)
          to label %return unwind label %lpad

lpad:                                             ; preds = %new.notnull
  %13 = landingpad { ptr, i32 }
          cleanup
  call void @_ZN6icu_757UMemorydlEPv(ptr noundef nonnull %call88) #20
  resume { ptr, i32 } %13

return.sink.split:                                ; preds = %for.body81, %for.cond79.preheader, %if.end22
  %regions.0.sink = phi ptr [ %call7, %if.end22 ], [ %regions.0, %for.cond79.preheader ], [ %regions.0, %for.body81 ]
  call void @uprv_free_75(ptr noundef nonnull %regions.0.sink)
  br label %return

return:                                           ; preds = %return.sink.split, %if.end6, %if.end87, %new.notnull, %if.then74, %if.end, %entry, %lor.lhs.false2
  %retval.0 = phi ptr [ null, %lor.lhs.false2 ], [ null, %entry ], [ null, %if.end ], [ null, %if.then74 ], [ null, %if.end87 ], [ %call88, %new.notnull ], [ null, %if.end6 ], [ null, %return.sink.split ]
  ret ptr %retval.0
}